Certificate:
    Data:
        Version: 3 (0x2)
        Serial Number: 14897669808734901439 (0xcebf27c282b494bf)
    Signature Algorithm: sha1WithRSAEncryption
        Issuer: C=US, ST=CA, O=KappaRock LLC, CN=kapparock.com
        Validity
            Not Before: Oct 31 02:23:44 2013 GMT
            Not After : Oct 30 02:23:44 2016 GMT
        Subject: C=US, ST=CA, O=KappaRock LLC, CN=kapparock.com
        Subject Public Key Info:
            Public Key Algorithm: rsaEncryption
                Public-Key: (2048 bit)
                Modulus:
                    00:ab:e4:e4:c9:93:85:1f:2c:41:1e:8e:14:38:df:
                    cd:2f:97:95:2d:c4:80:c4:fd:df:34:58:67:54:f2:
                    7b:d1:31:06:e0:b1:86:14:be:94:40:12:0f:32:88:
                    97:d8:1f:65:43:22:78:b1:ba:51:04:ce:da:c4:f0:
                    e8:3a:40:a1:eb:d1:87:d9:f8:e9:be:c1:e9:16:40:
                    1a:5f:06:e5:1f:49:62:62:24:03:f1:b1:da:91:df:
                    20:8f:16:2f:20:2f:2b:3d:93:07:94:9b:db:79:30:
                    6b:09:66:bc:b0:ba:c3:df:db:73:98:e6:3c:0a:1e:
                    84:38:b9:f6:35:df:2f:30:0b:2e:64:a4:b6:32:6d:
                    33:82:9a:8f:46:c8:80:c9:90:b4:30:d5:19:83:41:
                    4b:96:e6:29:3a:18:5a:ce:95:c5:5b:48:f5:67:8d:
                    f1:f8:67:75:c4:cb:e5:1b:c6:d2:29:2e:2b:eb:b1:
                    fc:0b:ba:8a:c6:f9:ef:39:56:13:45:4e:9a:91:82:
                    cb:fe:1b:ae:d5:38:ad:57:33:e8:33:0d:4e:0a:95:
                    b9:e3:8e:a0:7a:62:93:b0:60:44:7c:6d:04:a8:0e:
                    23:c9:2a:a2:21:49:15:c9:89:55:a1:d7:e4:34:e2:
                    0e:78:f4:d8:db:a2:1e:7d:a2:d0:54:90:31:39:96:
                    da:15
                Exponent: 65537 (0x10001)
        X509v3 extensions:
            X509v3 Subject Key Identifier: 
                39:23:1E:DF:6B:97:AC:6E:A3:9D:29:A4:72:E5:ED:FA:9F:5E:A8:C4
            X509v3 Authority Key Identifier: 
                keyid:39:23:1E:DF:6B:97:AC:6E:A3:9D:29:A4:72:E5:ED:FA:9F:5E:A8:C4

            X509v3 Basic Constraints: 
                CA:TRUE
    Signature Algorithm: sha1WithRSAEncryption
         4f:b1:bf:0d:c8:cf:50:3a:b9:df:a6:a5:3c:54:84:93:c0:6a:
         45:be:ea:40:c3:b7:ee:3f:f3:b9:70:6b:4c:11:8c:ff:2b:bc:
         7b:36:81:f6:4b:42:61:35:f2:fe:fc:69:fe:7c:4a:8e:4d:70:
         39:bf:57:be:19:51:ba:51:8a:59:e8:09:7c:e3:2e:7a:c3:d3:
         6c:ce:a7:ea:0b:6f:23:cb:3a:59:fd:16:23:28:e9:dd:e2:ac:
         f2:e1:8c:ba:aa:08:7d:41:5d:c1:2b:d7:e6:85:c9:34:12:68:
         0f:0e:a2:70:aa:82:ee:1b:50:ed:64:1b:62:51:0b:a1:75:08:
         01:be:de:ac:ae:25:46:af:f3:7f:46:63:b7:42:07:16:82:c6:
         aa:41:27:52:3a:bd:d4:a0:82:82:f0:33:1f:b6:75:9d:5b:27:
         02:65:be:97:9d:34:c7:6f:3b:ac:58:b5:19:ef:9e:63:a4:66:
         a1:b6:e4:06:5d:18:e2:cb:fc:fc:62:86:6c:28:19:ed:e7:d5:
         03:1d:d6:0b:78:50:0e:a3:f7:a2:4b:23:44:6f:27:63:6c:6f:
         72:82:97:5a:2e:a8:12:06:51:4e:9a:1c:80:11:04:0f:6d:34:
         6e:1f:0b:dd:69:a0:99:43:61:ea:b2:b1:65:48:a5:d2:31:b0:
         0c:96:fe:b6
-----BEGIN CERTIFICATE-----
MIIDZzCCAk+gAwIBAgIJAM6/J8KCtJS/MA0GCSqGSIb3DQEBBQUAMEoxCzAJBgNV
BAYTAlVTMQswCQYDVQQIDAJDQTEWMBQGA1UECgwNS2FwcGFSb2NrIExMQzEWMBQG
A1UEAwwNa2FwcGFyb2NrLmNvbTAeFw0xMzEwMzEwMjIzNDRaFw0xNjEwMzAwMjIz
NDRaMEoxCzAJBgNVBAYTAlVTMQswCQYDVQQIDAJDQTEWMBQGA1UECgwNS2FwcGFS
b2NrIExMQzEWMBQGA1UEAwwNa2FwcGFyb2NrLmNvbTCCASIwDQYJKoZIhvcNAQEB
BQADggEPADCCAQoCggEBAKvk5MmThR8sQR6OFDjfzS+XlS3EgMT93zRYZ1Tye9Ex
BuCxhhS+lEASDzKIl9gfZUMieLG6UQTO2sTw6DpAoevRh9n46b7B6RZAGl8G5R9J
YmIkA/Gx2pHfII8WLyAvKz2TB5Sb23kwawlmvLC6w9/bc5jmPAoehDi59jXfLzAL
LmSktjJtM4Kaj0bIgMmQtDDVGYNBS5bmKToYWs6VxVtI9WeN8fhndcTL5RvG0iku
K+ux/Au6isb57zlWE0VOmpGCy/4brtU4rVcz6DMNTgqVueOOoHpik7BgRHxtBKgO
I8kqoiFJFcmJVaHX5DTiDnj02NuiHn2i0FSQMTmW2hUCAwEAAaNQME4wHQYDVR0O
BBYEFDkjHt9rl6xuo50ppHLl7fqfXqjEMB8GA1UdIwQYMBaAFDkjHt9rl6xuo50p
pHLl7fqfXqjEMAwGA1UdEwQFMAMBAf8wDQYJKoZIhvcNAQEFBQADggEBAE+xvw3I
z1A6ud+mpTxUhJPAakW+6kDDt+4/87lwa0wRjP8rvHs2gfZLQmE18v78af58So5N
cDm/V74ZUbpRilnoCXzjLnrD02zOp+oLbyPLOln9FiMo6d3irPLhjLqqCH1BXcEr
1+aFyTQSaA8OonCqgu4bUO1kG2JRC6F1CAG+3qyuJUav839GY7dCBxaCxqpBJ1I6
vdSggoLwMx+2dZ1bJwJlvpedNMdvO6xYtRnvnmOkZqG25AZdGOLL/PxihmwoGe3n
1QMd1gt4UA6j96JLI0RvJ2Nsb3KCl1ouqBIGUU6aHIARBA9tNG4fC91poJlDYeqy
sWVIpdIxsAyW/rY=
-----END CERTIFICATE-----
